target datalayout = "e-m:e-p270:32:32-p271:32:32-p272:64:64-i64:64-i128:128-f80:128-n8:16:32:64-S128"
target triple = "x86_64-pc-linux-gnu"

%class.QVariant = type { %"struct.QVariant::Private" }
%"struct.QVariant::Private" = type <{ %"union.QVariant::Private::Data", i32, [4 x i8] }>
%"union.QVariant::Private::Data" = type { i64 }

@.str.26 = private unnamed_addr constant [3 x i8] c"np\00", align 1

; Function Attrs: mustprogress uwtable
define void @_ZN16PluginInfoDialog20chechBoxStateChangedEi(ptr noundef nonnull align 8 dereferenceable(88) %0, i32 noundef %1) #5 align 2 personality ptr @__gxx_personality_v0 {
  %3 = alloca ptr, align 8
  %4 = alloca i32, align 4
  %5 = alloca ptr, align 8
  %6 = alloca i32, align 4
  %7 = alloca %class.QVariant, align 8
  %8 = alloca ptr, align 8
  %9 = alloca i32, align 4
  %10 = alloca ptr, align 8
  %11 = alloca ptr, align 8
  store ptr %0, ptr %3, align 8
  store i32 %1, ptr %4, align 4
  %12 = load ptr, ptr %3, align 8
  %13 = call noundef ptr @_ZNK7QObject6senderEv(ptr noundef nonnull align 8 dereferenceable(16) %12)
  store ptr %13, ptr %5, align 8
  %14 = load ptr, ptr %5, align 8
  call void @_ZNK7QObject8propertyEPKc(ptr dead_on_unwind writable sret(%class.QVariant) align 8 %7, ptr noundef nonnull align 8 dereferenceable(16) %14, ptr noundef @.str.26)
  %15 = invoke noundef i32 @_ZNK8QVariant5toIntEPb(ptr noundef nonnull align 8 dereferenceable(16) %7, ptr noundef null)
          to label %16 unwind label %26

16:                                               ; preds = %2
  call void @_ZN8QVariantD1Ev(ptr noundef nonnull align 8 dereferenceable(16) %7) #3
  store i32 %15, ptr %6, align 4
  %17 = call noundef nonnull align 8 dereferenceable(272) ptr @_ZN7meshlab21pluginManagerInstanceEv()
  store ptr %17, ptr %10, align 8
  %18 = load ptr, ptr %10, align 8
  %19 = load i32, ptr %6, align 4
  %20 = call noundef ptr @_ZNK13PluginManagerixEj(ptr noundef nonnull align 8 dereferenceable(272) %18, i32 noundef %19)
  store ptr %20, ptr %11, align 8
  %21 = load i32, ptr %4, align 4
  %22 = icmp eq i32 %21, 2
  br i1 %22, label %23, label %30

23:                                               ; preds = %16
  %24 = load ptr, ptr %10, align 8
  %25 = load ptr, ptr %11, align 8
  call void @_ZN13PluginManager12enablePluginEP13MeshLabPlugin(ptr noundef nonnull align 8 dereferenceable(272) %24, ptr noundef %25)
  br label %33

26:                                               ; preds = %2
  %27 = landingpad { ptr, i32 }
          cleanup
  %28 = extractvalue { ptr, i32 } %27, 0
  store ptr %28, ptr %8, align 8
  %29 = extractvalue { ptr, i32 } %27, 1
  store i32 %29, ptr %9, align 4
  call void @_ZN8QVariantD1Ev(ptr noundef nonnull align 8 dereferenceable(16) %7) #3
  br label %34

30:                                               ; preds = %16
  %31 = load ptr, ptr %10, align 8
  %32 = load ptr, ptr %11, align 8
  call void @_ZN13PluginManager13disablePluginEP13MeshLabPlugin(ptr noundef nonnull align 8 dereferenceable(272) %31, ptr noundef %32)
  br label %33

33:                                               ; preds = %30, %23
  ret void

34:                                               ; preds = %26
  %35 = load ptr, ptr %8, align 8
  %36 = load i32, ptr %9, align 4
  %37 = insertvalue { ptr, i32 } poison, ptr %35, 0
  %38 = insertvalue { ptr, i32 } %37, i32 %36, 1
  resume { ptr, i32 } %38
}