; Function Attrs: mustprogress uwtable
define void @_ZN16PluginInfoDialog20chechBoxStateChangedEi(ptr noundef nonnull align 8 dereferenceable(88) %0, i32 noundef %1) local_unnamed_addr #9 align 2 personality ptr @__gxx_personality_v0 {
  %3 = alloca %class.QVariant, align 8
  %4 = tail call noundef ptr @_ZNK7QObject6senderEv(ptr noundef nonnull align 8 dereferenceable(16) %0)
  call void @_ZNK7QObject8propertyEPKc(ptr dead_on_unwind nonnull writable sret(%class.QVariant) align 8 %3, ptr noundef nonnull align 8 dereferenceable(16) %4, ptr noundef nonnull @.str.26)
  %5 = invoke noundef i32 @_ZNK8QVariant5toIntEPb(ptr noundef nonnull align 8 dereferenceable(16) %3, ptr noundef null)
          to label %6 unwind label %11

6:                                                ; preds = %2
  call void @_ZN8QVariantD1Ev(ptr noundef nonnull align 8 dereferenceable(16) %3) #21
  %7 = call noundef nonnull align 8 dereferenceable(272) ptr @_ZN7meshlab21pluginManagerInstanceEv()
  %8 = call noundef ptr @_ZNK13PluginManagerixEj(ptr noundef nonnull align 8 dereferenceable(272) %7, i32 noundef %5)
  %9 = icmp eq i32 %1, 2
  br i1 %9, label %10, label %13

10:                                               ; preds = %6
  call void @_ZN13PluginManager12enablePluginEP13MeshLabPlugin(ptr noundef nonnull align 8 dereferenceable(272) %7, ptr noundef %8)
  br label %14

11:                                               ; preds = %2
  %12 = landingpad { ptr, i32 }
          cleanup
  call void @_ZN8QVariantD1Ev(ptr noundef nonnull align 8 dereferenceable(16) %3) #21
  resume { ptr, i32 } %12

13:                                               ; preds = %6
  call void @_ZN13PluginManager13disablePluginEP13MeshLabPlugin(ptr noundef nonnull align 8 dereferenceable(272) %7, ptr noundef %8)
  br label %14

14:                                               ; preds = %13, %10
  ret void
}